target datalayout = "e-m:e-p270:32:32-p271:32:32-p272:64:64-i64:64-i128:128-f80:128-n8:16:32:64-S128"
target triple = "x86_64-pc-linux-gnu"

%struct.JSMallocState = type { i64, i64, i64, ptr }

@.str.34 = private unnamed_addr constant [6 x i8] c"F %p\0A\00", align 1

; Function Attrs: nounwind uwtable
define internal i64 @js_trace_malloc_usable_size(ptr noundef %0) #0 {
  %2 = alloca ptr, align 8
  store ptr %0, ptr %2, align 8
  %3 = load ptr, ptr %2, align 8
  %4 = call i64 @malloc_usable_size(ptr noundef %3) #12
  ret i64 %4
}

; Function Attrs: nounwind uwtable
define internal void @js_trace_free(ptr noundef %0, ptr noundef %1) #0 {
  %3 = alloca ptr, align 8
  %4 = alloca ptr, align 8
  store ptr %0, ptr %3, align 8
  store ptr %1, ptr %4, align 8
  %5 = load ptr, ptr %4, align 8
  %6 = icmp ne ptr %5, null
  br i1 %6, label %8, label %7

7:                                                ; preds = %2
  br label %23

8:                                                ; preds = %2
  %9 = load ptr, ptr %3, align 8
  %10 = load ptr, ptr %4, align 8
  call void (ptr, ptr, ...) @js_trace_malloc_printf(ptr noundef %9, ptr noundef @.str.34, ptr noundef %10)
  %11 = load ptr, ptr %3, align 8
  %12 = getelementptr inbounds %struct.JSMallocState, ptr %11, i32 0, i32 0
  %13 = load i64, ptr %12, align 8
  %14 = add i64 %13, -1
  store i64 %14, ptr %12, align 8
  %15 = load ptr, ptr %4, align 8
  %16 = call i64 @js_trace_malloc_usable_size(ptr noundef %15)
  %17 = add i64 %16, 8
  %18 = load ptr, ptr %3, align 8
  %19 = getelementptr inbounds %struct.JSMallocState, ptr %18, i32 0, i32 1
  %20 = load i64, ptr %19, align 8
  %21 = sub i64 %20, %17
  store i64 %21, ptr %19, align 8
  %22 = load ptr, ptr %4, align 8
  call void @free(ptr noundef %22) #12
  br label %23

23:                                               ; preds = %8, %7
  ret void
}