; Function Attrs: nounwind uwtable
define internal void @js_trace_free(ptr nocapture noundef %0, ptr noundef %1) #3 {
  %.not = icmp eq ptr %1, null
  br i1 %.not, label %10, label %3

3:                                                ; preds = %2
  tail call void (ptr, ptr, ...) @js_trace_malloc_printf(ptr noundef %0, ptr noundef nonnull @.str.34, ptr noundef nonnull %1)
  %4 = load i64, ptr %0, align 8
  %5 = add i64 %4, -1
  store i64 %5, ptr %0, align 8
  %6 = tail call i64 @malloc_usable_size(ptr noundef nonnull %1) #16
  %7 = getelementptr inbounds i8, ptr %0, i64 8
  %8 = load i64, ptr %7, align 8
  %reass.sub = sub i64 %8, %6
  %9 = add i64 %reass.sub, -8
  store i64 %9, ptr %7, align 8
  tail call void @free(ptr noundef nonnull %1) #16
  br label %10

10:                                               ; preds = %2, %3
  ret void
}